target datalayout = "e-m:e-p270:32:32-p271:32:32-p272:64:64-i64:64-i128:128-f80:128-n8:16:32:64-S128"
target triple = "x86_64-pc-linux-gnu"

%"class.std::__cxx11::basic_string" = type { %"struct.std::__cxx11::basic_string<char>::_Alloc_hider", i64, %union.anon }
%"struct.std::__cxx11::basic_string<char>::_Alloc_hider" = type { ptr }
%union.anon = type { i64, [8 x i8] }
%"class.testing::internal::Random" = type { i32 }
%"class.testing::internal::FilePath" = type { %"class.std::__cxx11::basic_string" }
%"class.testing::internal::UnitTestImpl" = type <{ ptr, ptr, %"class.testing::internal::FilePath", %"class.testing::internal::DefaultGlobalTestPartResultReporter", %"class.testing::internal::DefaultPerThreadTestPartResultReporter", ptr, [8 x i8], %"class.testing::internal::ThreadLocal", %"class.std::vector", %"class.std::vector.3", %"class.std::vector.8", %"class.testing::internal::ParameterizedTestCaseRegistry", i8, [3 x i8], i32, ptr, ptr, %"class.testing::TestResult", %"class.testing::TestEventListeners", ptr, i8, [3 x i8], i32, %"class.testing::internal::Random", [4 x i8], i64, i64, %"class.testing::internal::scoped_ptr.28", %"class.testing::internal::scoped_ptr.29", %"class.testing::internal::ThreadLocal.30", i8, [7 x i8] }>
%"class.testing::internal::DefaultGlobalTestPartResultReporter" = type { %"class.testing::TestPartResultReporterInterface", ptr }
%"class.testing::TestPartResultReporterInterface" = type { ptr }
%"class.testing::internal::DefaultPerThreadTestPartResultReporter" = type { %"class.testing::TestPartResultReporterInterface", ptr }
%"class.testing::internal::ThreadLocal" = type { ptr }
%"class.std::vector" = type { %"struct.std::_Vector_base" }
%"struct.std::_Vector_base" = type { %"struct.std::_Vector_base<testing::Environment *, std::allocator<testing::Environment *>>::_Vector_impl" }
%"struct.std::_Vector_base<testing::Environment *, std::allocator<testing::Environment *>>::_Vector_impl" = type { %"struct.std::_Vector_base<testing::Environment *, std::allocator<testing::Environment *>>::_Vector_impl_data" }
%"struct.std::_Vector_base<testing::Environment *, std::allocator<testing::Environment *>>::_Vector_impl_data" = type { ptr, ptr, ptr }
%"class.std::vector.3" = type { %"struct.std::_Vector_base.4" }
%"struct.std::_Vector_base.4" = type { %"struct.std::_Vector_base<testing::TestCase *, std::allocator<testing::TestCase *>>::_Vector_impl" }
%"struct.std::_Vector_base<testing::TestCase *, std::allocator<testing::TestCase *>>::_Vector_impl" = type { %"struct.std::_Vector_base<testing::TestCase *, std::allocator<testing::TestCase *>>::_Vector_impl_data" }
%"struct.std::_Vector_base<testing::TestCase *, std::allocator<testing::TestCase *>>::_Vector_impl_data" = type { ptr, ptr, ptr }
%"class.std::vector.8" = type { %"struct.std::_Vector_base.9" }
%"struct.std::_Vector_base.9" = type { %"struct.std::_Vector_base<int, std::allocator<int>>::_Vector_impl" }
%"struct.std::_Vector_base<int, std::allocator<int>>::_Vector_impl" = type { %"struct.std::_Vector_base<int, std::allocator<int>>::_Vector_impl_data" }
%"struct.std::_Vector_base<int, std::allocator<int>>::_Vector_impl_data" = type { ptr, ptr, ptr }
%"class.testing::internal::ParameterizedTestCaseRegistry" = type { %"class.std::vector.13" }
%"class.std::vector.13" = type { %"struct.std::_Vector_base.14" }
%"struct.std::_Vector_base.14" = type { %"struct.std::_Vector_base<testing::internal::ParameterizedTestCaseInfoBase *, std::allocator<testing::internal::ParameterizedTestCaseInfoBase *>>::_Vector_impl" }
%"struct.std::_Vector_base<testing::internal::ParameterizedTestCaseInfoBase *, std::allocator<testing::internal::ParameterizedTestCaseInfoBase *>>::_Vector_impl" = type { %"struct.std::_Vector_base<testing::internal::ParameterizedTestCaseInfoBase *, std::allocator<testing::internal::ParameterizedTestCaseInfoBase *>>::_Vector_impl_data" }
%"struct.std::_Vector_base<testing::internal::ParameterizedTestCaseInfoBase *, std::allocator<testing::internal::ParameterizedTestCaseInfoBase *>>::_Vector_impl_data" = type { ptr, ptr, ptr }
%"class.testing::TestResult" = type { [8 x i8], %"class.std::vector.18", %"class.std::vector.23", i32, i64 }
%"class.std::vector.18" = type { %"struct.std::_Vector_base.19" }
%"struct.std::_Vector_base.19" = type { %"struct.std::_Vector_base<testing::TestPartResult, std::allocator<testing::TestPartResult>>::_Vector_impl" }
%"struct.std::_Vector_base<testing::TestPartResult, std::allocator<testing::TestPartResult>>::_Vector_impl" = type { %"struct.std::_Vector_base<testing::TestPartResult, std::allocator<testing::TestPartResult>>::_Vector_impl_data" }
%"struct.std::_Vector_base<testing::TestPartResult, std::allocator<testing::TestPartResult>>::_Vector_impl_data" = type { ptr, ptr, ptr }
%"class.std::vector.23" = type { %"struct.std::_Vector_base.24" }
%"struct.std::_Vector_base.24" = type { %"struct.std::_Vector_base<testing::TestProperty, std::allocator<testing::TestProperty>>::_Vector_impl" }
%"struct.std::_Vector_base<testing::TestProperty, std::allocator<testing::TestProperty>>::_Vector_impl" = type { %"struct.std::_Vector_base<testing::TestProperty, std::allocator<testing::TestProperty>>::_Vector_impl_data" }
%"struct.std::_Vector_base<testing::TestProperty, std::allocator<testing::TestProperty>>::_Vector_impl_data" = type { ptr, ptr, ptr }
%"class.testing::TestEventListeners" = type { ptr, ptr, ptr }
%"class.testing::internal::scoped_ptr.28" = type { ptr }
%"class.testing::internal::scoped_ptr.29" = type { ptr }
%"class.testing::internal::ThreadLocal.30" = type { %"class.std::vector.31" }
%"class.std::vector.31" = type { %"struct.std::_Vector_base.32" }
%"struct.std::_Vector_base.32" = type { %"struct.std::_Vector_base<testing::internal::TraceInfo, std::allocator<testing::internal::TraceInfo>>::_Vector_impl" }
%"struct.std::_Vector_base<testing::internal::TraceInfo, std::allocator<testing::internal::TraceInfo>>::_Vector_impl" = type { %"struct.std::_Vector_base<testing::internal::TraceInfo, std::allocator<testing::internal::TraceInfo>>::_Vector_impl_data" }
%"struct.std::_Vector_base<testing::internal::TraceInfo, std::allocator<testing::internal::TraceInfo>>::_Vector_impl_data" = type { ptr, ptr, ptr }

; Function Attrs: mustprogress nounwind uwtable
define linkonce_odr hidden noundef nonnull align 8 dereferenceable(8) ptr @_ZNKSt6vectorIPN7testing8TestCaseESaIS2_EEixEm(ptr noundef nonnull align 8 dereferenceable(24) %0, i64 noundef %1) #6 comdat align 2 {
  %3 = alloca ptr, align 8
  %4 = alloca i64, align 8
  store ptr %0, ptr %3, align 8
  store i64 %1, ptr %4, align 8
  %5 = load ptr, ptr %3, align 8
  %6 = getelementptr inbounds nuw %"struct.std::_Vector_base.4", ptr %5, i32 0, i32 0
  %7 = getelementptr inbounds nuw %"struct.std::_Vector_base<testing::TestCase *, std::allocator<testing::TestCase *>>::_Vector_impl_data", ptr %6, i32 0, i32 0
  %8 = load ptr, ptr %7, align 8
  %9 = load i64, ptr %4, align 8
  %10 = getelementptr inbounds nuw ptr, ptr %8, i64 %9
  ret ptr %10
}

; Function Attrs: mustprogress nounwind uwtable
define linkonce_odr hidden noundef i64 @_ZNKSt6vectorIPN7testing8TestCaseESaIS2_EE4sizeEv(ptr noundef nonnull align 8 dereferenceable(24) %0) #6 comdat align 2 {
  %2 = alloca ptr, align 8
  store ptr %0, ptr %2, align 8
  %3 = load ptr, ptr %2, align 8
  %4 = getelementptr inbounds nuw %"struct.std::_Vector_base.4", ptr %3, i32 0, i32 0
  %5 = getelementptr inbounds nuw %"struct.std::_Vector_base<testing::TestCase *, std::allocator<testing::TestCase *>>::_Vector_impl_data", ptr %4, i32 0, i32 1
  %6 = load ptr, ptr %5, align 8
  %7 = getelementptr inbounds nuw %"struct.std::_Vector_base.4", ptr %3, i32 0, i32 0
  %8 = getelementptr inbounds nuw %"struct.std::_Vector_base<testing::TestCase *, std::allocator<testing::TestCase *>>::_Vector_impl_data", ptr %7, i32 0, i32 0
  %9 = load ptr, ptr %8, align 8
  %10 = ptrtoint ptr %6 to i64
  %11 = ptrtoint ptr %9 to i64
  %12 = sub i64 %10, %11
  %13 = sdiv exact i64 %12, 8
  ret i64 %13
}

; Function Attrs: mustprogress uwtable
define internal noundef i32 @_ZN7testing8internalL19SumOverTestCaseListERKSt6vectorIPNS_8TestCaseESaIS3_EEMS2_KFivE(ptr noundef nonnull align 8 dereferenceable(24) %0, i64 %1, i64 %2) #4 {
  %4 = alloca { i64, i64 }, align 8
  %5 = alloca ptr, align 8
  %6 = alloca { i64, i64 }, align 8
  %7 = alloca i32, align 4
  %8 = alloca i64, align 8
  %9 = getelementptr inbounds nuw { i64, i64 }, ptr %4, i32 0, i32 0
  store i64 %1, ptr %9, align 8
  %10 = getelementptr inbounds nuw { i64, i64 }, ptr %4, i32 0, i32 1
  store i64 %2, ptr %10, align 8
  %11 = load { i64, i64 }, ptr %4, align 8
  store ptr %0, ptr %5, align 8
  store { i64, i64 } %11, ptr %6, align 8
  call void @llvm.lifetime.start.p0(i64 4, ptr %7) #3
  store i32 0, ptr %7, align 4
  call void @llvm.lifetime.start.p0(i64 8, ptr %8) #3
  store i64 0, ptr %8, align 8
  br label %12

12:                                               ; preds = %41, %3
  %13 = load i64, ptr %8, align 8
  %14 = load ptr, ptr %5, align 8
  %15 = call noundef i64 @_ZNKSt6vectorIPN7testing8TestCaseESaIS2_EE4sizeEv(ptr noundef nonnull align 8 dereferenceable(24) %14) #3
  %16 = icmp ult i64 %13, %15
  br i1 %16, label %18, label %17

17:                                               ; preds = %12
  call void @llvm.lifetime.end.p0(i64 8, ptr %8) #3
  br label %44

18:                                               ; preds = %12
  %19 = load ptr, ptr %5, align 8
  %20 = load i64, ptr %8, align 8
  %21 = call noundef nonnull align 8 dereferenceable(8) ptr @_ZNKSt6vectorIPN7testing8TestCaseESaIS2_EEixEm(ptr noundef nonnull align 8 dereferenceable(24) %19, i64 noundef %20) #3
  %22 = load ptr, ptr %21, align 8
  %23 = load { i64, i64 }, ptr %6, align 8
  %24 = extractvalue { i64, i64 } %23, 1
  %25 = getelementptr inbounds i8, ptr %22, i64 %24
  %26 = extractvalue { i64, i64 } %23, 0
  %27 = and i64 %26, 1
  %28 = icmp ne i64 %27, 0
  br i1 %28, label %29, label %34

29:                                               ; preds = %18
  %30 = load ptr, ptr %25, align 8
  %31 = sub i64 %26, 1
  %32 = getelementptr i8, ptr %30, i64 %31, !nosanitize !6
  %33 = load ptr, ptr %32, align 8, !nosanitize !6
  br label %36

34:                                               ; preds = %18
  %35 = inttoptr i64 %26 to ptr
  br label %36

36:                                               ; preds = %34, %29
  %37 = phi ptr [ %33, %29 ], [ %35, %34 ]
  %38 = call noundef i32 %37(ptr noundef nonnull align 8 dereferenceable(200) %25)
  %39 = load i32, ptr %7, align 4
  %40 = add nsw i32 %39, %38
  store i32 %40, ptr %7, align 4
  br label %41

41:                                               ; preds = %36
  %42 = load i64, ptr %8, align 8
  %43 = add i64 %42, 1
  store i64 %43, ptr %8, align 8
  br label %12, !llvm.loop !14

44:                                               ; preds = %17
  %45 = load i32, ptr %7, align 4
  call void @llvm.lifetime.end.p0(i64 4, ptr %7) #3
  ret i32 %45
}

; Function Attrs: mustprogress uwtable
define hidden noundef i32 @_ZNK7testing8internal12UnitTestImpl19disabled_test_countEv(ptr noundef nonnull align 8 dereferenceable(401) %0) #4 align 2 {
  %2 = alloca ptr, align 8
  %3 = alloca { i64, i64 }, align 8
  store ptr %0, ptr %2, align 8
  %4 = load ptr, ptr %2, align 8
  %5 = getelementptr inbounds nuw %"class.testing::internal::UnitTestImpl", ptr %4, i32 0, i32 9
  store { i64, i64 } { i64 ptrtoint (ptr @_ZNK7testing8TestCase19disabled_test_countEv to i64), i64 0 }, ptr %3, align 8
  %6 = getelementptr inbounds nuw { i64, i64 }, ptr %3, i32 0, i32 0
  %7 = load i64, ptr %6, align 8
  %8 = getelementptr inbounds nuw { i64, i64 }, ptr %3, i32 0, i32 1
  %9 = load i64, ptr %8, align 8
  %10 = call noundef i32 @_ZN7testing8internalL19SumOverTestCaseListERKSt6vectorIPNS_8TestCaseESaIS3_EEMS2_KFivE(ptr noundef nonnull align 8 dereferenceable(24) %5, i64 %7, i64 %9)
  ret i32 %10
}